target datalayout = "e-m:e-p270:32:32-p271:32:32-p272:64:64-i64:64-i128:128-f80:128-n8:16:32:64-S128"
target triple = "x86_64-pc-linux-gnu"

%struct.hiredisAllocFuncs = type { ptr, ptr, ptr, ptr, ptr }

@.str.2 = private unnamed_addr constant [6 x i8] c"*%d\0D\0A\00", align 1
@.str.3 = private unnamed_addr constant [7 x i8] c"$%zu\0D\0A\00", align 1
@hiredisAllocFns = external global %struct.hiredisAllocFuncs, align 8

; Function Attrs: inlinehint nounwind uwtable
define internal ptr @hi_malloc(i64 noundef %0) #2 {
  %2 = alloca i64, align 8
  store i64 %0, ptr %2, align 8, !tbaa !19
  %3 = load ptr, ptr @hiredisAllocFns, align 8, !tbaa !36
  %4 = load i64, ptr %2, align 8, !tbaa !19
  %5 = call ptr %3(i64 noundef %4)
  ret ptr %5
}

; Function Attrs: nounwind uwtable
define internal i64 @bulklen(i64 noundef %0) #0 {
  %2 = alloca i64, align 8
  store i64 %0, ptr %2, align 8, !tbaa !19
  %3 = load i64, ptr %2, align 8, !tbaa !19
  %4 = call i32 @countDigits(i64 noundef %3)
  %5 = add i32 1, %4
  %6 = add i32 %5, 2
  %7 = zext i32 %6 to i64
  %8 = load i64, ptr %2, align 8, !tbaa !19
  %9 = add i64 %7, %8
  %10 = add i64 %9, 2
  ret i64 %10
}

; Function Attrs: nounwind uwtable
define internal i32 @countDigits(i64 noundef %0) #0 {
  %2 = alloca i32, align 4
  %3 = alloca i64, align 8
  %4 = alloca i32, align 4
  %5 = alloca i32, align 4
  store i64 %0, ptr %3, align 8, !tbaa !19
  call void @llvm.lifetime.start.p0(i64 4, ptr %4) #10
  store i32 1, ptr %4, align 4, !tbaa !29
  br label %6

6:                                                ; preds = %29, %1
  %7 = load i64, ptr %3, align 8, !tbaa !19
  %8 = icmp ult i64 %7, 10
  br i1 %8, label %9, label %11

9:                                                ; preds = %6
  %10 = load i32, ptr %4, align 4, !tbaa !29
  store i32 %10, ptr %2, align 4
  store i32 1, ptr %5, align 4
  br label %34

11:                                               ; preds = %6
  %12 = load i64, ptr %3, align 8, !tbaa !19
  %13 = icmp ult i64 %12, 100
  br i1 %13, label %14, label %17

14:                                               ; preds = %11
  %15 = load i32, ptr %4, align 4, !tbaa !29
  %16 = add i32 %15, 1
  store i32 %16, ptr %2, align 4
  store i32 1, ptr %5, align 4
  br label %34

17:                                               ; preds = %11
  %18 = load i64, ptr %3, align 8, !tbaa !19
  %19 = icmp ult i64 %18, 1000
  br i1 %19, label %20, label %23

20:                                               ; preds = %17
  %21 = load i32, ptr %4, align 4, !tbaa !29
  %22 = add i32 %21, 2
  store i32 %22, ptr %2, align 4
  store i32 1, ptr %5, align 4
  br label %34

23:                                               ; preds = %17
  %24 = load i64, ptr %3, align 8, !tbaa !19
  %25 = icmp ult i64 %24, 10000
  br i1 %25, label %26, label %29

26:                                               ; preds = %23
  %27 = load i32, ptr %4, align 4, !tbaa !29
  %28 = add i32 %27, 3
  store i32 %28, ptr %2, align 4
  store i32 1, ptr %5, align 4
  br label %34

29:                                               ; preds = %23
  %30 = load i64, ptr %3, align 8, !tbaa !19
  %31 = udiv i64 %30, 10000
  store i64 %31, ptr %3, align 8, !tbaa !19
  %32 = load i32, ptr %4, align 4, !tbaa !29
  %33 = add i32 %32, 4
  store i32 %33, ptr %4, align 4, !tbaa !29
  br label %6

34:                                               ; preds = %26, %20, %14, %9
  call void @llvm.lifetime.end.p0(i64 4, ptr %4) #10
  %35 = load i32, ptr %2, align 4
  ret i32 %35
}

; Function Attrs: nounwind uwtable
define i64 @redisFormatCommandArgv(ptr noundef %0, i32 noundef %1, ptr noundef %2, ptr noundef %3) #0 {
  %5 = alloca i64, align 8
  %6 = alloca ptr, align 8
  %7 = alloca i32, align 4
  %8 = alloca ptr, align 8
  %9 = alloca ptr, align 8
  %10 = alloca ptr, align 8
  %11 = alloca i64, align 8
  %12 = alloca i64, align 8
  %13 = alloca i64, align 8
  %14 = alloca i32, align 4
  %15 = alloca i32, align 4
  store ptr %0, ptr %6, align 8, !tbaa !24
  store i32 %1, ptr %7, align 4, !tbaa !29
  store ptr %2, ptr %8, align 8, !tbaa !24
  store ptr %3, ptr %9, align 8, !tbaa !37
  call void @llvm.lifetime.start.p0(i64 8, ptr %10) #10
  store ptr null, ptr %10, align 8, !tbaa !26
  call void @llvm.lifetime.start.p0(i64 8, ptr %11) #10
  call void @llvm.lifetime.start.p0(i64 8, ptr %12) #10
  call void @llvm.lifetime.start.p0(i64 8, ptr %13) #10
  call void @llvm.lifetime.start.p0(i64 4, ptr %14) #10
  %16 = load ptr, ptr %6, align 8, !tbaa !24
  %17 = icmp eq ptr %16, null
  br i1 %17, label %18, label %19

18:                                               ; preds = %4
  store i64 -1, ptr %5, align 8
  store i32 1, ptr %15, align 4
  br label %127

19:                                               ; preds = %4
  %20 = load i32, ptr %7, align 4, !tbaa !29
  %21 = sext i32 %20 to i64
  %22 = call i32 @countDigits(i64 noundef %21)
  %23 = add i32 1, %22
  %24 = add i32 %23, 2
  %25 = zext i32 %24 to i64
  store i64 %25, ptr %13, align 8, !tbaa !19
  store i32 0, ptr %14, align 4, !tbaa !29
  br label %26

26:                                               ; preds = %52, %19
  %27 = load i32, ptr %14, align 4, !tbaa !29
  %28 = load i32, ptr %7, align 4, !tbaa !29
  %29 = icmp slt i32 %27, %28
  br i1 %29, label %30, label %55

30:                                               ; preds = %26
  %31 = load ptr, ptr %9, align 8, !tbaa !37
  %32 = icmp ne ptr %31, null
  br i1 %32, label %33, label %39

33:                                               ; preds = %30
  %34 = load ptr, ptr %9, align 8, !tbaa !37
  %35 = load i32, ptr %14, align 4, !tbaa !29
  %36 = sext i32 %35 to i64
  %37 = getelementptr inbounds i64, ptr %34, i64 %36
  %38 = load i64, ptr %37, align 8, !tbaa !19
  br label %46

39:                                               ; preds = %30
  %40 = load ptr, ptr %8, align 8, !tbaa !24
  %41 = load i32, ptr %14, align 4, !tbaa !29
  %42 = sext i32 %41 to i64
  %43 = getelementptr inbounds ptr, ptr %40, i64 %42
  %44 = load ptr, ptr %43, align 8, !tbaa !26
  %45 = call i64 @strlen(ptr noundef %44) #11
  br label %46

46:                                               ; preds = %39, %33
  %47 = phi i64 [ %38, %33 ], [ %45, %39 ]
  store i64 %47, ptr %12, align 8, !tbaa !19
  %48 = load i64, ptr %12, align 8, !tbaa !19
  %49 = call i64 @bulklen(i64 noundef %48)
  %50 = load i64, ptr %13, align 8, !tbaa !19
  %51 = add i64 %50, %49
  store i64 %51, ptr %13, align 8, !tbaa !19
  br label %52

52:                                               ; preds = %46
  %53 = load i32, ptr %14, align 4, !tbaa !29
  %54 = add nsw i32 %53, 1
  store i32 %54, ptr %14, align 4, !tbaa !29
  br label %26

55:                                               ; preds = %26
  %56 = load i64, ptr %13, align 8, !tbaa !19
  %57 = add i64 %56, 1
  %58 = call ptr @hi_malloc(i64 noundef %57)
  store ptr %58, ptr %10, align 8, !tbaa !26
  %59 = load ptr, ptr %10, align 8, !tbaa !26
  %60 = icmp eq ptr %59, null
  br i1 %60, label %61, label %62

61:                                               ; preds = %55
  store i64 -1, ptr %5, align 8
  store i32 1, ptr %15, align 4
  br label %127

62:                                               ; preds = %55
  %63 = load ptr, ptr %10, align 8, !tbaa !26
  %64 = load i32, ptr %7, align 4, !tbaa !29
  %65 = call i32 (ptr, ptr, ...) @sprintf(ptr noundef %63, ptr noundef @.str.2, i32 noundef %64) #10
  %66 = sext i32 %65 to i64
  store i64 %66, ptr %11, align 8, !tbaa !19
  store i32 0, ptr %14, align 4, !tbaa !29
  br label %67

67:                                               ; preds = %117, %62
  %68 = load i32, ptr %14, align 4, !tbaa !29
  %69 = load i32, ptr %7, align 4, !tbaa !29
  %70 = icmp slt i32 %68, %69
  br i1 %70, label %71, label %120

71:                                               ; preds = %67
  %72 = load ptr, ptr %9, align 8, !tbaa !37
  %73 = icmp ne ptr %72, null
  br i1 %73, label %74, label %80

74:                                               ; preds = %71
  %75 = load ptr, ptr %9, align 8, !tbaa !37
  %76 = load i32, ptr %14, align 4, !tbaa !29
  %77 = sext i32 %76 to i64
  %78 = getelementptr inbounds i64, ptr %75, i64 %77
  %79 = load i64, ptr %78, align 8, !tbaa !19
  br label %87

80:                                               ; preds = %71
  %81 = load ptr, ptr %8, align 8, !tbaa !24
  %82 = load i32, ptr %14, align 4, !tbaa !29
  %83 = sext i32 %82 to i64
  %84 = getelementptr inbounds ptr, ptr %81, i64 %83
  %85 = load ptr, ptr %84, align 8, !tbaa !26
  %86 = call i64 @strlen(ptr noundef %85) #11
  br label %87

87:                                               ; preds = %80, %74
  %88 = phi i64 [ %79, %74 ], [ %86, %80 ]
  store i64 %88, ptr %12, align 8, !tbaa !19
  %89 = load ptr, ptr %10, align 8, !tbaa !26
  %90 = load i64, ptr %11, align 8, !tbaa !19
  %91 = getelementptr inbounds nuw i8, ptr %89, i64 %90
  %92 = load i64, ptr %12, align 8, !tbaa !19
  %93 = call i32 (ptr, ptr, ...) @sprintf(ptr noundef %91, ptr noundef @.str.3, i64 noundef %92) #10
  %94 = sext i32 %93 to i64
  %95 = load i64, ptr %11, align 8, !tbaa !19
  %96 = add i64 %95, %94
  store i64 %96, ptr %11, align 8, !tbaa !19
  %97 = load ptr, ptr %10, align 8, !tbaa !26
  %98 = load i64, ptr %11, align 8, !tbaa !19
  %99 = getelementptr inbounds nuw i8, ptr %97, i64 %98
  %100 = load ptr, ptr %8, align 8, !tbaa !24
  %101 = load i32, ptr %14, align 4, !tbaa !29
  %102 = sext i32 %101 to i64
  %103 = getelementptr inbounds ptr, ptr %100, i64 %102
  %104 = load ptr, ptr %103, align 8, !tbaa !26
  %105 = load i64, ptr %12, align 8, !tbaa !19
  call void @llvm.memcpy.p0.p0.i64(ptr align 1 %99, ptr align 1 %104, i64 %105, i1 false)
  %106 = load i64, ptr %12, align 8, !tbaa !19
  %107 = load i64, ptr %11, align 8, !tbaa !19
  %108 = add i64 %107, %106
  store i64 %108, ptr %11, align 8, !tbaa !19
  %109 = load ptr, ptr %10, align 8, !tbaa !26
  %110 = load i64, ptr %11, align 8, !tbaa !19
  %111 = add i64 %110, 1
  store i64 %111, ptr %11, align 8, !tbaa !19
  %112 = getelementptr inbounds nuw i8, ptr %109, i64 %110
  store i8 13, ptr %112, align 1, !tbaa !30
  %113 = load ptr, ptr %10, align 8, !tbaa !26
  %114 = load i64, ptr %11, align 8, !tbaa !19
  %115 = add i64 %114, 1
  store i64 %115, ptr %11, align 8, !tbaa !19
  %116 = getelementptr inbounds nuw i8, ptr %113, i64 %114
  store i8 10, ptr %116, align 1, !tbaa !30
  br label %117

117:                                              ; preds = %87
  %118 = load i32, ptr %14, align 4, !tbaa !29
  %119 = add nsw i32 %118, 1
  store i32 %119, ptr %14, align 4, !tbaa !29
  br label %67

120:                                              ; preds = %67
  %121 = load ptr, ptr %10, align 8, !tbaa !26
  %122 = load i64, ptr %11, align 8, !tbaa !19
  %123 = getelementptr inbounds nuw i8, ptr %121, i64 %122
  store i8 0, ptr %123, align 1, !tbaa !30
  %124 = load ptr, ptr %10, align 8, !tbaa !26
  %125 = load ptr, ptr %6, align 8, !tbaa !24
  store ptr %124, ptr %125, align 8, !tbaa !26
  %126 = load i64, ptr %13, align 8, !tbaa !19
  store i64 %126, ptr %5, align 8
  store i32 1, ptr %15, align 4
  br label %127

127:                                              ; preds = %120, %61, %18
  call void @llvm.lifetime.end.p0(i64 4, ptr %14) #10
  call void @llvm.lifetime.end.p0(i64 8, ptr %13) #10
  call void @llvm.lifetime.end.p0(i64 8, ptr %12) #10
  call void @llvm.lifetime.end.p0(i64 8, ptr %11) #10
  call void @llvm.lifetime.end.p0(i64 8, ptr %10) #10
  %128 = load i64, ptr %5, align 8
  ret i64 %128
}